(dp0
Vatp82
p1
c__builtin__
set
p2
((lp3
S'word_dict.pickle'
p4
atp5
Rp6
sVsVelse:
p7
g2
((lp8
g4
atp9
Rp10
sVatp86
p11
g2
((lp12
g4
atp13
Rp14
sV((lp153
p15
g2
((lp16
g4
atp17
Rp18
sVsVfile?
p19
g2
((lp20
g4
atp21
Rp22
sV((lp157
p23
g2
((lp24
g4
atp25
Rp26
sVprint(word_dict)
p27
g2
((lp28
S'file-indexer.py'
p29
atp30
Rp31
sVsVf.read()
p32
g2
((lp33
g4
atp34
Rp35
sVatp266
p36
g2
((lp37
g4
atp38
Rp39
sVsVword_dict:
p40
g2
((lp41
g4
atp42
Rp43
sVatp262
p44
g2
((lp45
g4
atp46
Rp47
sVatp302
p48
g2
((lp49
g4
atp50
Rp51
sVatp306
p52
g2
((lp53
g4
atp54
Rp55
sVsVwith
p56
g2
((lp57
g4
atp58
Rp59
sVatp5
p60
g2
((lp61
g4
atp62
Rp63
sVto
p64
g2
((lp65
g29
atp66
Rp67
sVatp18
p68
g2
((lp69
g4
atp70
Rp71
sVatp14
p72
g2
((lp73
g4
atp74
Rp75
sVatp10
p76
g2
((lp77
g4
atp78
Rp79
sVwords_in_file(path,
p80
g2
((lp81
g29
atp82
Rp83
sVRp47
p84
g2
((lp85
g4
atp86
Rp87
sVg4
p88
g2
((lp89
g4
atp90
Rp91
sVg2
p92
g2
((lp93
g4
atp94
Rp95
sVatp354
p96
g2
((lp97
g4
atp98
Rp99
sVp256
p100
g2
((lp101
g4
atp102
Rp103
sVg9
p104
g2
((lp105
g4
atp106
Rp107
sVp252
p108
g2
((lp109
g4
atp110
Rp111
sVsVprint(word_dict)
p112
g2
((lp113
g4
atp114
Rp115
sVf.read()
p116
g2
((lp117
g29
atp118
Rp119
sVsVfiles
p120
g2
((lp121
g4
atp122
Rp123
sVRp179
p124
g2
((lp125
g4
atp126
Rp127
sV((lp33
p128
g2
((lp129
g4
atp130
Rp131
sVRp175
p132
g2
((lp133
g4
atp134
Rp135
sVsVfilename),
p136
g2
((lp137
g4
atp138
Rp139
sV((lp37
p140
g2
((lp141
g4
atp142
Rp143
sVRp171
p144
g2
((lp145
g4
atp146
Rp147
sVsVsave
p148
g2
((lp149
g4
atp150
Rp151
sVp284
p152
g2
((lp153
g4
atp154
Rp155
sVRp195
p156
g2
((lp157
g4
atp158
Rp159
sVRp191
p160
g2
((lp161
g4
atp162
Rp163
sVRp199
p164
g2
((lp165
g4
atp166
Rp167
sVatp358
p168
g2
((lp169
g4
atp170
Rp171
sVprint(type(html))
p172
g2
((lp173
S'word-count.py'
p174
atp175
Rp176
sVsVas
p177
g2
((lp178
g4
atp179
Rp180
sVelse:
p181
g2
((lp182
g29
atp183
Rp184
sVsVprint(split_result)
p185
g2
((lp186
g4
atp187
Rp188
sVp156
p189
g2
((lp190
g4
atp191
Rp192
sVsV"rb")
p193
g2
((lp194
g4
atp195
Rp196
sVp152
p197
g2
((lp198
g4
atp199
Rp200
sV((lp49
p201
g2
((lp202
g4
atp203
Rp204
sV((lp45
p205
g2
((lp206
g4
atp207
Rp208
sV((lp41
p209
g2
((lp210
g4
atp211
Rp212
sVRp223
p213
g2
((lp214
g4
atp215
Rp216
sVRp227
p217
g2
((lp218
g4
atp219
Rp220
sVre.split(r"\u005cW+",
p221
g2
((lp222
g174
atp223
Rp224
sV((lp201
p225
g2
((lp226
g4
atp227
Rp228
sV((lp205
p229
g2
((lp230
g4
atp231
Rp232
sVsVcurrent
p233
g2
((lp234
g4
atp235
Rp236
sV((lp8
p237
g2
((lp238
g4
atp239
Rp240
sVatp138
p241
g2
((lp242
g4
atp243
Rp244
sVatp134
p245
g2
((lp246
g4
atp247
Rp248
sV((lp3
p249
g2
((lp250
g4
atp251
Rp252
sVatp130
p253
g2
((lp254
g4
atp255
Rp256
sVsVhtml
p257
g2
((lp258
g4
atp259
Rp260
sVsVCounter(split_result)
p261
g2
((lp262
g4
atp263
Rp264
sVp376
p265
g2
((lp266
g4
atp267
Rp268
sVRp355
p269
g2
((lp270
g4
atp271
Rp272
sVRp351
p273
g2
((lp274
g4
atp275
Rp276
sVRp299
p277
g2
((lp278
g4
atp279
Rp280
sV((lp337
p281
g2
((lp282
g4
atp283
Rp284
sVRp295
p285
g2
((lp286
g4
atp287
Rp288
sV((lp333
p289
g2
((lp290
g4
atp291
Rp292
sVRp291
p293
g2
((lp294
g4
atp295
Rp296
sV((lp117
p297
g2
((lp298
g4
atp299
Rp300
sV((lp113
p301
g2
((lp302
g4
atp303
Rp304
sVsV==
p305
g2
((lp306
g4
atp307
Rp308
sV((lp289
p309
g2
((lp310
g4
atp311
Rp312
sVp48
p313
g2
((lp314
g4
atp315
Rp316
sV((lp297
p317
g2
((lp318
g4
atp319
Rp320
sVp44
p321
g2
((lp322
g4
atp323
Rp324
sV((lp293
p325
g2
((lp326
g4
atp327
Rp328
sVp40
p329
g2
((lp330
g4
atp331
Rp332
sVatp182
p333
g2
((lp334
g4
atp335
Rp336
sVfrom
p337
g2
((lp338
g29
ag174
atp339
Rp340
sVatp186
p341
g2
((lp342
g4
atp343
Rp344
sVatp222
p345
g2
((lp346
g4
atp347
Rp348
sVatp226
p349
g2
((lp350
g4
atp351
Rp352
sVf:
p353
g2
((lp354
g29
atp355
Rp356
sVRp83
p357
g2
((lp358
g4
atp359
Rp360
sVRp99
p361
g2
((lp362
g4
atp363
Rp364
sVsVword_dict)
p365
g2
((lp366
g4
atp367
Rp368
sVRp87
p369
g2
((lp370
g4
atp371
Rp372
sVRp279
p373
g2
((lp374
g4
atp375
Rp376
sVp324
p377
g2
((lp378
g4
atp379
Rp380
sVword
p381
g2
((lp382
g29
ag174
atp383
Rp384
sVp320
p385
g2
((lp386
g4
atp387
Rp388
sVp288
p389
g2
((lp390
g4
atp391
Rp392
sVatp202
p393
g2
((lp394
g4
atp395
Rp396
sV((lp121
p397
g2
((lp398
g4
atp399
Rp400
sVp328
p401
g2
((lp402
g4
atp403
Rp404
sVp280
p405
g2
((lp406
g4
atp407
Rp408
sVatp46
p409
g2
((lp410
g4
atp411
Rp412
sVatp42
p413
g2
((lp414
g4
atp415
Rp416
sVpickle
p417
g2
((lp418
g29
atp419
Rp420
sVdef
p421
g2
((lp422
g29
ag174
atp423
Rp424
sVfilename)
p425
g2
((lp426
g29
atp427
Rp428
sVp264
p429
g2
((lp430
g4
atp431
Rp432
sVp260
p433
g2
((lp434
g4
atp435
Rp436
sVp108
p437
g2
((lp438
g4
atp439
Rp440
sVp104
p441
g2
((lp442
g4
atp443
Rp444
sV((lp93
p445
g2
((lp446
g4
atp447
Rp448
sVp268
p449
g2
((lp450
g4
atp451
Rp452
sVp100
p453
g2
((lp454
g4
atp455
Rp456
sV((lp97
p457
g2
((lp458
g4
atp459
Rp460
sVRp19
p461
g2
((lp462
g4
atp463
Rp464
sVRp15
p465
g2
((lp466
g4
atp467
Rp468
sVf)
p469
g2
((lp470
g29
atp471
Rp472
sVsVrequest_url(url)
p473
g2
((lp474
g4
atp475
Rp476
sVRp11
p477
g2
((lp478
g4
atp479
Rp480
sVRp43
p481
g2
((lp482
g4
atp483
Rp484
sVRp127
p485
g2
((lp486
g4
atp487
Rp488
sVCounter(split_result)
p489
g2
((lp490
g174
atp491
Rp492
sV((lp229
p493
g2
((lp494
g4
atp495
Rp496
sVRp123
p497
g2
((lp498
g4
atp499
Rp500
sVp212
p501
g2
((lp502
g4
atp503
Rp504
sVs.
p505
g2
((lp506
g4
atp507
Rp508
sVp216
p509
g2
((lp510
g4
atp511
Rp512
sVp192
p513
g2
((lp514
g4
atp515
Rp516
sVp196
p517
g2
((lp518
g4
atp519
Rp520
sVp92
p521
g2
((lp522
g4
atp523
Rp524
sVatp170
p525
g2
((lp526
g4
atp527
Rp528
sVatp174
p529
g2
((lp530
g4
atp531
Rp532
sVatp178
p533
g2
((lp534
g4
atp535
Rp536
sVurllib.request
p537
g2
((lp538
g174
atp539
Rp540
sVsVcontinue
p541
g2
((lp542
g4
atp543
Rp544
sVRp303
p545
g2
((lp546
g4
atp547
Rp548
sVsVcounter
p549
g2
((lp550
g4
atp551
Rp552
sVp96
p553
g2
((lp554
g4
atp555
Rp556
sVcounter
p557
g2
((lp558
g174
atp559
Rp560
sVdoc:
p561
g2
((lp562
g174
atp563
Rp564
sVp88
p565
g2
((lp566
g4
atp567
Rp568
sVos.listdir(path):
p569
g2
((lp570
g29
atp571
Rp572
sVp80
p573
g2
((lp574
g4
atp575
Rp576
sVfor
p577
g2
((lp578
g29
atp579
Rp580
sVp84
p581
g2
((lp582
g4
atp583
Rp584
sV(dp0
p585
g2
((lp586
g4
atp587
Rp588
sVsVreturn
p589
g2
((lp590
g4
atp591
Rp592
sVc__builtin__
p593
g2
((lp594
g4
atp595
Rp596
sVsVof
p597
g2
((lp598
g4
atp599
Rp600
sVsVsplit_result
p601
g2
((lp602
g4
atp603
Rp604
sVRp267
p605
g2
((lp606
g4
atp607
Rp608
sVsVos
p609
g2
((lp610
g4
atp611
Rp612
sVhtml
p613
g2
((lp614
g174
atp615
Rp616
sV((lp249
p617
g2
((lp618
g4
atp619
Rp620
sVsVopen(os.path.join(path,
p621
g2
((lp622
g4
atp623
Rp624
sV((lp361
p625
g2
((lp626
g4
atp627
Rp628
sV((lp245
p629
g2
((lp630
g4
atp631
Rp632
sV((lp241
p633
g2
((lp634
g4
atp635
Rp636
sV((lp369
p637
g2
((lp638
g4
atp639
Rp640
sVreturn
p641
g2
((lp642
g29
ag174
atp643
Rp644
sVatp78
p645
g2
((lp646
g4
atp647
Rp648
sVatp74
p649
g2
((lp650
g4
atp651
Rp652
sVatp70
p653
g2
((lp654
g4
atp655
Rp656
sVp12
p657
g2
((lp658
g4
atp659
Rp660
sVp16
p661
g2
((lp662
g4
atp663
Rp664
sVsVcollections
p665
g2
((lp666
g4
atp667
Rp668
sVnot
p669
g2
((lp670
g29
atp671
Rp672
sV((lp145
p673
g2
((lp674
g4
atp675
Rp676
sV((lp141
p677
g2
((lp678
g4
atp679
Rp680
sVatp250
p681
g2
((lp682
g4
atp683
Rp684
sVatp318
p685
g2
((lp686
g4
atp687
Rp688
sVatp254
p689
g2
((lp690
g4
atp691
Rp692
sVatp258
p693
g2
((lp694
g4
atp695
Rp696
sVatp310
p697
g2
((lp698
g4
atp699
Rp700
sVatp314
p701
g2
((lp702
g4
atp703
Rp704
sVopen(os.path.join(path,
p705
g2
((lp706
g29
atp707
Rp708
sVRp51
p709
g2
((lp710
g4
atp711
Rp712
sVretrieve
p713
g2
((lp714
g174
atp715
Rp716
sVatp378
p717
g2
((lp718
g4
atp719
Rp720
sVp220
p721
g2
((lp722
g4
atp723
Rp724
sVlist
p725
g2
((lp726
g29
atp727
Rp728
sVp224
p729
g2
((lp730
g4
atp731
Rp732
sVsVdef
p733
g2
((lp734
g4
atp735
Rp736
sVprint(html)
p737
g2
((lp738
g174
atp739
Rp740
sVVdoc:
p741
g2
((lp742
g4
atp743
Rp744
sVsVos.listdir(path):
p745
g2
((lp746
g4
atp747
Rp748
sVRp163
p749
g2
((lp750
g4
atp751
Rp752
sVRp167
p753
g2
((lp754
g4
atp755
Rp756
sVre
p757
g2
((lp758
g174
atp759
Rp760
sVword_dict
p761
g2
((lp762
g29
atp763
Rp764
sVs.decode('utf-8').split()
p765
g2
((lp766
g29
atp767
Rp768
sV((lp301
p769
g2
((lp770
g4
atp771
Rp772
sVp316
p773
g2
((lp774
g4
atp775
Rp776
sVp312
p777
g2
((lp778
g4
atp779
Rp780
sVRp187
p781
g2
((lp782
g4
atp783
Rp784
sVp136
p785
g2
((lp786
g4
atp787
Rp788
sVRp307
p789
g2
((lp790
g4
atp791
Rp792
sVRp183
p793
g2
((lp794
g4
atp795
Rp796
sVp132
p797
g2
((lp798
g4
atp799
Rp800
sVRp27
p801
g2
((lp802
g4
atp803
Rp804
sVRp23
p805
g2
((lp806
g4
atp807
Rp808
sVRp343
p809
g2
((lp810
g4
atp811
Rp812
sVsVfilename):
p813
g2
((lp814
g4
atp815
Rp816
sVp140
p817
g2
((lp818
g4
atp819
Rp820
sVRp119
p821
g2
((lp822
g4
atp823
Rp824
sVp144
p825
g2
((lp826
g4
atp827
Rp828
sVRp115
p829
g2
((lp830
g4
atp831
Rp832
sVp148
p833
g2
((lp834
g4
atp835
Rp836
sV((lp57
p837
g2
((lp838
g4
atp839
Rp840
sVRp111
p841
g2
((lp842
g4
atp843
Rp844
sV((lp53
p845
g2
((lp846
g4
atp847
Rp848
sVsVos.path.isfile(os.path.join(path,
p849
g2
((lp850
g4
atp851
Rp852
sVRp335
p853
g2
((lp854
g4
atp855
Rp856
sVRp331
p857
g2
((lp858
g4
atp859
Rp860
sVRp239
p861
g2
((lp862
g4
atp863
Rp864
sV((lp353
p865
g2
((lp866
g4
atp867
Rp868
sV((lp357
p869
g2
((lp870
g4
atp871
Rp872
sVRp235
p873
g2
((lp874
g4
atp875
Rp876
sVRp339
p877
g2
((lp878
g4
atp879
Rp880
sVRp231
p881
g2
((lp882
g4
atp883
Rp884
sVatp102
p885
g2
((lp886
g4
atp887
Rp888
sVatp106
p889
g2
((lp890
g4
atp891
Rp892
sV((lp329
p893
g2
((lp894
g4
atp895
Rp896
sVRp347
p897
g2
((lp898
g4
atp899
Rp900
sV((lp321
p901
g2
((lp902
g4
atp903
Rp904
sV((lp325
p905
g2
((lp906
g4
atp907
Rp908
sV((lp101
p909
g2
((lp910
g4
atp911
Rp912
sV((lp105
p913
g2
((lp914
g4
atp915
Rp916
sV((lp109
p917
g2
((lp918
g4
atp919
Rp920
sVatp214
p921
g2
((lp922
g4
atp923
Rp924
sVatp210
p925
g2
((lp926
g4
atp927
Rp928
sVword_dict[word]
p929
g2
((lp930
g29
atp931
Rp932
sVp56
p933
g2
((lp934
g4
atp935
Rp936
sVatp218
p937
g2
((lp938
g4
atp939
Rp940
sVp52
p941
g2
((lp942
g4
atp943
Rp944
sVatp270
p945
g2
((lp946
g4
atp947
Rp948
sVatp198
p949
g2
((lp950
g4
atp951
Rp952
sVatp194
p953
g2
((lp954
g4
atp955
Rp956
sVatp190
p957
g2
((lp958
g4
atp959
Rp960
sV((lp217
p961
g2
((lp962
g4
atp963
Rp964
sV((lp213
p965
g2
((lp966
g4
atp967
Rp968
sVsVprint(html.decode('utf-8'))
p969
g2
((lp970
g4
atp971
Rp972
sV((lp197
p973
g2
((lp974
g4
atp975
Rp976
sV((lp193
p977
g2
((lp978
g4
atp979
Rp980
sVfiles
p981
g2
((lp982
g29
atp983
Rp984
sVatp374
p985
g2
((lp986
g4
atp987
Rp988
sVrequest_url(url):
p989
g2
((lp990
g174
atp991
Rp992
sVsVword_dict
p993
g2
((lp994
g4
atp995
Rp996
sV((lp177
p997
g2
((lp998
g4
atp999
Rp1000
sVsV"__main__":
p1001
g2
((lp1002
g4
atp1003
Rp1004
sV((lp173
p1005
g2
((lp1006
g4
atp1007
Rp1008
sVsVfor
p1009
g2
((lp1010
g4
atp1011
Rp1012
sV"wb")
p1013
g2
((lp1014
g29
atp1015
Rp1016
sVp352
p1017
g2
((lp1018
g4
atp1019
Rp1020
sVp356
p1021
g2
((lp1022
g4
atp1023
Rp1024
sVRp6
p1025
g2
((lp1026
g4
atp1027
Rp1028
sVsVcollect
p1029
g2
((lp1030
g4
atp1031
Rp1032
sVp292
p1033
g2
((lp1034
g4
atp1035
Rp1036
sVsVwords_in_file(path,
p1037
g2
((lp1038
g4
atp1039
Rp1040
sVatp30
p1041
g2
((lp1042
g4
atp1043
Rp1044
sVsVcount
p1045
g2
((lp1046
g4
atp1047
Rp1048
sVatp34
p1049
g2
((lp1050
g4
atp1051
Rp1052
sVatp38
p1053
g2
((lp1054
g4
atp1055
Rp1056
sVsVre
p1057
g2
((lp1058
g4
atp1059
Rp1060
sVsV''
p1061
g2
((lp1062
g4
atp1063
Rp1064
sVp276
p1065
g2
((lp1066
g4
atp1067
Rp1068
sVp272
p1069
g2
((lp1070
g4
atp1071
Rp1072
sVsV'https://naver.com'
p1073
g2
((lp1074
g4
atp1075
Rp1076
sVp172
p1077
g2
((lp1078
g4
atp1079
Rp1080
sVp176
p1081
g2
((lp1082
g4
atp1083
Rp1084
sVRp63
p1085
g2
((lp1086
g4
atp1087
Rp1088
sVRp67
p1089
g2
((lp1090
g4
atp1091
Rp1092
sVRp151
p1093
g2
((lp1094
g4
atp1095
Rp1096
sVp184
p1097
g2
((lp1098
g4
atp1099
Rp1100
sV((lp13
p1101
g2
((lp1102
g4
atp1103
Rp1104
sVRp155
p1105
g2
((lp1106
g4
atp1107
Rp1108
sVp180
p1109
g2
((lp1110
g4
atp1111
Rp1112
sV((lp17
p1113
g2
((lp1114
g4
atp1115
Rp1116
sVRp159
p1117
g2
((lp1118
g4
atp1119
Rp1120
sVp188
p1121
g2
((lp1122
g4
atp1123
Rp1124
sVRp95
p1125
g2
((lp1126
g4
atp1127
Rp1128
sVsV__name__
p1129
g2
((lp1130
g4
atp1131
Rp1132
sVRp91
p1133
g2
((lp1134
g4
atp1135
Rp1136
sVset([filename])
p1137
g2
((lp1138
g29
atp1139
Rp1140
sVsVdirectory
p1141
g2
((lp1142
g4
atp1143
Rp1144
sVsVpickle.dump(word_dict,
p1145
g2
((lp1146
g4
atp1147
Rp1148
sVRp379
p1149
g2
((lp1150
g4
atp1151
Rp1152
sVRp371
p1153
g2
((lp1154
g4
atp1155
Rp1156
sVsVmain()
p1157
g2
((lp1158
g4
atp1159
Rp1160
sVatp146
p1161
g2
((lp1162
g4
atp1163
Rp1164
sVRp375
p1165
g2
((lp1166
g4
atp1167
Rp1168
sVatp142
p1169
g2
((lp1170
g4
atp1171
Rp1172
sVatp242
p1173
g2
((lp1174
g4
atp1175
Rp1176
sVmain()
p1177
g2
((lp1178
g29
ag174
atp1179
Rp1180
sVcurrent
p1181
g2
((lp1182
g29
atp1183
Rp1184
sVfilename.startswith('.'):
p1185
g2
((lp1186
g29
atp1187
Rp1188
sVRp263
p1189
g2
((lp1190
g4
atp1191
Rp1192
sVp248
p1193
g2
((lp1194
g4
atp1195
Rp1196
sV((lp77
p1197
g2
((lp1198
g4
atp1199
Rp1200
sVRp207
p1201
g2
((lp1202
g4
atp1203
Rp1204
sVsVnot
p1205
g2
((lp1206
g4
atp1207
Rp1208
sVRp203
p1209
g2
((lp1210
g4
atp1211
Rp1212
sV==
p1213
g2
((lp1214
g29
ag174
atp1215
Rp1216
sV((lp225
p1217
g2
((lp1218
g4
atp1219
Rp1220
sVsave_filename
p1221
g2
((lp1222
g29
atp1223
Rp1224
sVload_words_in_files(path,
p1225
g2
((lp1226
g29
atp1227
Rp1228
sV((lp221
p1229
g2
((lp1230
g4
atp1231
Rp1232
sVsVretrieve
p1233
g2
((lp1234
g4
atp1235
Rp1236
sVwords
p1237
g2
((lp1238
g29
atp1239
Rp1240
sVword_dict):
p1241
g2
((lp1242
g29
atp1243
Rp1244
sVsVtop10
p1245
g2
((lp1246
g4
atp1247
Rp1248
sVprint(split_result)
p1249
g2
((lp1250
g174
atp1251
Rp1252
sV((lp313
p1253
g2
((lp1254
g4
atp1255
Rp1256
sVRp271
p1257
g2
((lp1258
g4
atp1259
Rp1260
sV((lp317
p1261
g2
((lp1262
g4
atp1263
Rp1264
sVRp275
p1265
g2
((lp1266
g4
atp1267
Rp1268
sVdoc.read()
p1269
g2
((lp1270
g174
atp1271
Rp1272
sVp364
p1273
g2
((lp1274
g4
atp1275
Rp1276
sV((lp253
p1277
g2
((lp1278
g4
atp1279
Rp1280
sV((lp257
p1281
g2
((lp1282
g4
atp1283
Rp1284
sV((lp209
p1285
g2
((lp1286
g4
atp1287
Rp1288
sVset
p1289
g2
((lp1290
g4
atp1291
Rp1292
sVatp66
p1293
g2
((lp1294
g4
atp1295
Rp1296
sVatp62
p1297
g2
((lp1298
g4
atp1299
Rp1300
sVp24
p1301
g2
((lp1302
g4
atp1303
Rp1304
sVatp326
p1305
g2
((lp1306
g4
atp1307
Rp1308
sVp20
p1309
g2
((lp1310
g4
atp1311
Rp1312
sVatp322
p1313
g2
((lp1314
g4
atp1315
Rp1316
sV((lp133
p1317
g2
((lp1318
g4
atp1319
Rp1320
sV((lp137
p1321
g2
((lp1322
g4
atp1323
Rp1324
sVp28
p1325
g2
((lp1326
g4
atp1327
Rp1328
sV#
p1329
g2
((lp1330
g29
ag174
atp1331
Rp1332
sVsVfile(pickle)
p1333
g2
((lp1334
g4
atp1335
Rp1336
sVatp246
p1337
g2
((lp1338
g4
atp1339
Rp1340
sVRp139
p1341
g2
((lp1342
g4
atp1343
Rp1344
sVfilename
p1345
g2
((lp1346
g29
atp1347
Rp1348
sVimport
p1349
g2
((lp1350
g29
ag174
atp1351
Rp1352
sVsVword_dict[word]
p1353
g2
((lp1354
g4
atp1355
Rp1356
sVword_dict:
p1357
g2
((lp1358
g29
atp1359
Rp1360
sVp232
p1361
g2
((lp1362
g4
atp1363
Rp1364
sVCounter
p1365
g2
((lp1366
g29
ag174
atp1367
Rp1368
sVsVhtml.decode('utf-8'))
p1369
g2
((lp1370
g4
atp1371
Rp1372
sVp236
p1373
g2
((lp1374
g4
atp1375
Rp1376
sVword_dict)
p1377
g2
((lp1378
g29
atp1379
Rp1380
sVsVlist
p1381
g2
((lp1382
g4
atp1383
Rp1384
sVRp147
p1385
g2
((lp1386
g4
atp1387
Rp1388
sVsVurllib.request.urlopen(url)
p1389
g2
((lp1390
g4
atp1391
Rp1392
sVurllib.request.urlopen(url)
p1393
g2
((lp1394
g174
atp1395
Rp1396
sVsVCounter
p1397
g2
((lp1398
g4
atp1399
Rp1400
sVs
p1401
g2
((lp1402
g29
atp1403
Rp1404
sVp208
p1405
g2
((lp1406
g4
atp1407
Rp1408
sVp308
p1409
g2
((lp1410
g4
atp1411
Rp1412
sVp304
p1413
g2
((lp1414
g4
atp1415
Rp1416
sVp300
p1417
g2
((lp1418
g4
atp1419
Rp1420
sVload
p1421
g2
((lp1422
g29
atp1423
Rp1424
sVfilename)):
p1425
g2
((lp1426
g29
atp1427
Rp1428
sVp124
p1429
g2
((lp1430
g4
atp1431
Rp1432
sVp120
p1433
g2
((lp1434
g4
atp1435
Rp1436
sVp128
p1437
g2
((lp1438
g4
atp1439
Rp1440
sVRp35
p1441
g2
((lp1442
g4
atp1443
Rp1444
sVRp31
p1445
g2
((lp1446
g4
atp1447
Rp1448
sVpath
p1449
g2
((lp1450
g29
atp1451
Rp1452
sVsVre.split(r"\u005cu005cW+",
p1453
g2
((lp1454
g4
atp1455
Rp1456
sV'https://naver.com'
p1457
g2
((lp1458
g174
atp1459
Rp1460
sVRp39
p1461
g2
((lp1462
g4
atp1463
Rp1464
sV((lp69
p1465
g2
((lp1466
g4
atp1467
Rp1468
sV((lp365
p1469
g2
((lp1470
g4
atp1471
Rp1472
sV((lp61
p1473
g2
((lp1474
g4
atp1475
Rp1476
sV((lp65
p1477
g2
((lp1478
g4
atp1479
Rp1480
sVRp327
p1481
g2
((lp1482
g4
atp1483
Rp1484
sVatp114
p1485
g2
((lp1486
g4
atp1487
Rp1488
sVatp298
p1489
g2
((lp1490
g4
atp1491
Rp1492
sVRp323
p1493
g2
((lp1494
g4
atp1495
Rp1496
sVsVword_dict):
p1497
g2
((lp1498
g4
atp1499
Rp1500
sVatp110
p1501
g2
((lp1502
g4
atp1503
Rp1504
sVatp294
p1505
g2
((lp1506
g4
atp1507
Rp1508
sV((lp345
p1509
g2
((lp1510
g4
atp1511
Rp1512
sVRp243
p1513
g2
((lp1514
g4
atp1515
Rp1516
sVatp290
p1517
g2
((lp1518
g4
atp1519
Rp1520
sV((lp341
p1521
g2
((lp1522
g4
atp1523
Rp1524
sVRp247
p1525
g2
((lp1526
g4
atp1527
Rp1528
sVatp118
p1529
g2
((lp1530
g4
atp1531
Rp1532
sVsVfilename)
p1533
g2
((lp1534
g4
atp1535
Rp1536
sVsVfilename,
p1537
g2
((lp1538
g4
atp1539
Rp1540
sV"__main__":
p1541
g2
((lp1542
g29
ag174
atp1543
Rp1544
sVp2
p1545
g2
((lp1546
g4
atp1547
Rp1548
sVp1
p1549
g2
((lp1550
g4
atp1551
Rp1552
sVp7
p1553
g2
((lp1554
g4
atp1555
Rp1556
sVp4
p1557
g2
((lp1558
g4
atp1559
Rp1560
sVsVword
p1561
g2
((lp1562
g4
atp1563
Rp1564
sVp9
p1565
g2
((lp1566
g4
atp1567
Rp1568
sV'word_dict.pickle'
p1569
g2
((lp1570
g29
atp1571
Rp1572
sVp60
p1573
g2
((lp1574
g4
atp1575
Rp1576
sV"rb")
p1577
g2
((lp1578
g29
atp1579
Rp1580
sVp64
p1581
g2
((lp1582
g4
atp1583
Rp1584
sVp68
p1585
g2
((lp1586
g4
atp1587
Rp1588
sVis
p1589
g2
((lp1590
g29
atp1591
Rp1592
sVfilename,
p1593
g2
((lp1594
g29
atp1595
Rp1596
sVsVfilename)):
p1597
g2
((lp1598
g4
atp1599
Rp1600
sVatp206
p1601
g2
((lp1602
g4
atp1603
Rp1604
sVin
p1605
g2
((lp1606
g29
atp1607
Rp1608
sVif
p1609
g2
((lp1610
g29
ag174
atp1611
Rp1612
sV((lp261
p1613
g2
((lp1614
g4
atp1615
Rp1616
sV((lp189
p1617
g2
((lp1618
g4
atp1619
Rp1620
sV((lp265
p1621
g2
((lp1622
g4
atp1623
Rp1624
sV((lp269
p1625
g2
((lp1626
g4
atp1627
Rp1628
sV((lp181
p1629
g2
((lp1630
g4
atp1631
Rp1632
sV((lp185
p1633
g2
((lp1634
g4
atp1635
Rp1636
sVatp94
p1637
g2
((lp1638
g4
atp1639
Rp1640
sVatp90
p1641
g2
((lp1642
g4
atp1643
Rp1644
sVatp362
p1645
g2
((lp1646
g4
atp1647
Rp1648
sVatp98
p1649
g2
((lp1650
g4
atp1651
Rp1652
sV((lp165
p1653
g2
((lp1654
g4
atp1655
Rp1656
sV((lp161
p1657
g2
((lp1658
g4
atp1659
Rp1660
sVsVprint(counter.most_common(10))
p1661
g2
((lp1662
g4
atp1663
Rp1664
sVsVfilename
p1665
g2
((lp1666
g4
atp1667
Rp1668
sV((lp169
p1669
g2
((lp1670
g4
atp1671
Rp1672
sVatp274
p1673
g2
((lp1674
g4
atp1675
Rp1676
sVp340
p1677
g2
((lp1678
g4
atp1679
Rp1680
sVatp366
p1681
g2
((lp1682
g4
atp1683
Rp1684
sVsVprint(type(html))
p1685
g2
((lp1686
g4
atp1687
Rp1688
sVp344
p1689
g2
((lp1690
g4
atp1691
Rp1692
sVp348
p1693
g2
((lp1694
g4
atp1695
Rp1696
sVatp278
p1697
g2
((lp1698
g4
atp1699
Rp1700
sVatp370
p1701
g2
((lp1702
g4
atp1703
Rp1704
sVatp22
p1705
g2
((lp1706
g4
atp1707
Rp1708
sVatp26
p1709
g2
((lp1710
g4
atp1711
Rp1712
sVRp359
p1713
g2
((lp1714
g4
atp1715
Rp1716
sVmain():
p1717
g2
((lp1718
g29
ag174
atp1719
Rp1720
sVp240
p1721
g2
((lp1722
g4
atp1723
Rp1724
sVp168
p1725
g2
((lp1726
g4
atp1727
Rp1728
sV((lp373
p1729
g2
((lp1730
g4
atp1731
Rp1732
sVp244
p1733
g2
((lp1734
g4
atp1735
Rp1736
sV((lp149
p1737
g2
((lp1738
g4
atp1739
Rp1740
sVp160
p1741
g2
((lp1742
g4
atp1743
Rp1744
sVp164
p1745
g2
((lp1746
g4
atp1747
Rp1748
sVRp79
p1749
g2
((lp1750
g4
atp1751
Rp1752
sVRp71
p1753
g2
((lp1754
g4
atp1755
Rp1756
sVp296
p1757
g2
((lp1758
g4
atp1759
Rp1760
sVRp75
p1761
g2
((lp1762
g4
atp1763
Rp1764
sVsVto
p1765
g2
((lp1766
g4
atp1767
Rp1768
sVRp143
p1769
g2
((lp1770
g4
atp1771
Rp1772
sV((lp29
p1773
g2
((lp1774
g4
atp1775
Rp1776
sV((lp25
p1777
g2
((lp1778
g4
atp1779
Rp1780
sVsVimport
p1781
g2
((lp1782
g4
atp1783
Rp1784
sV((lp21
p1785
g2
((lp1786
g4
atp1787
Rp1788
sVcollections
p1789
g2
((lp1790
g29
ag174
atp1791
Rp1792
sVpickle.dump(word_dict,
p1793
g2
((lp1794
g29
atp1795
Rp1796
sVsave
p1797
g2
((lp1798
g29
atp1799
Rp1800
sV'.'
p1801
g2
((lp1802
g29
atp1803
Rp1804
sVatp158
p1805
g2
((lp1806
g4
atp1807
Rp1808
sVp368
p1809
g2
((lp1810
g4
atp1811
Rp1812
sVRp363
p1813
g2
((lp1814
g4
atp1815
Rp1816
sVatp150
p1817
g2
((lp1818
g4
atp1819
Rp1820
sVRp367
p1821
g2
((lp1822
g4
atp1823
Rp1824
sVatp154
p1825
g2
((lp1826
g4
atp1827
Rp1828
sVsVwords:
p1829
g2
((lp1830
g4
atp1831
Rp1832
sVsVignore
p1833
g2
((lp1834
g4
atp1835
Rp1836
sVrequest_url(url)
p1837
g2
((lp1838
g174
atp1839
Rp1840
sVsV"wb")
p1841
g2
((lp1842
g4
atp1843
Rp1844
sV=
p1845
g2
((lp1846
g29
ag174
atp1847
Rp1848
sVsVmain():
p1849
g2
((lp1850
g4
atp1851
Rp1852
sVcollect
p1853
g2
((lp1854
g174
atp1855
Rp1856
sVS'word-count.py'
p1857
g2
((lp1858
g4
atp1859
Rp1860
sVcontinue
p1861
g2
((lp1862
g29
atp1863
Rp1864
sVp360
p1865
g2
((lp1866
g4
atp1867
Rp1868
sVpickle.load(f)
p1869
g2
((lp1870
g29
atp1871
Rp1872
sVRp215
p1873
g2
((lp1874
g4
atp1875
Rp1876
sVRp211
p1877
g2
((lp1878
g4
atp1879
Rp1880
sV((lp237
p1881
g2
((lp1882
g4
atp1883
Rp1884
sVsVf)
p1885
g2
((lp1886
g4
atp1887
Rp1888
sVRp219
p1889
g2
((lp1890
g4
atp1891
Rp1892
sVatp126
p1893
g2
((lp1894
g4
atp1895
Rp1896
sVsV'word_dict.pickle',
p1897
g2
((lp1898
g4
atp1899
Rp1900
sVatp122
p1901
g2
((lp1902
g4
atp1903
Rp1904
sVsVf:
p1905
g2
((lp1906
g4
atp1907
Rp1908
sVignore
p1909
g2
((lp1910
g29
atp1911
Rp1912
sVsVin
p1913
g2
((lp1914
g4
atp1915
Rp1916
sVsVif
p1917
g2
((lp1918
g4
atp1919
Rp1920
sVp372
p1921
g2
((lp1922
g4
atp1923
Rp1924
sVsVrequest_url(url):
p1925
g2
((lp1926
g4
atp1927
Rp1928
sV((lp305
p1929
g2
((lp1930
g4
atp1931
Rp1932
sV((lp309
p1933
g2
((lp1934
g4
atp1935
Rp1936
sVRp287
p1937
g2
((lp1938
g4
atp1939
Rp1940
sVsVis
p1941
g2
((lp1942
g4
atp1943
Rp1944
sVRp283
p1945
g2
((lp1946
g4
atp1947
Rp1948
sVatp58
p1949
g2
((lp1950
g4
atp1951
Rp1952
sVprint(counter.most_common(10))
p1953
g2
((lp1954
g174
atp1955
Rp1956
sVatp50
p1957
g2
((lp1958
g4
atp1959
Rp1960
sVatp54
p1961
g2
((lp1962
g4
atp1963
Rp1964
sV((lp281
p1965
g2
((lp1966
g4
atp1967
Rp1968
sV((lp129
p1969
g2
((lp1970
g4
atp1971
Rp1972
sVatp330
p1973
g2
((lp1974
g4
atp1975
Rp1976
sV((lp285
p1977
g2
((lp1978
g4
atp1979
Rp1980
sVatp334
p1981
g2
((lp1982
g4
atp1983
Rp1984
sVp32
p1985
g2
((lp1986
g4
atp1987
Rp1988
sV__name__
p1989
g2
((lp1990
g29
ag174
atp1991
Rp1992
sVatp338
p1993
g2
((lp1994
g4
atp1995
Rp1996
sVp36
p1997
g2
((lp1998
g4
atp1999
Rp2000
sV((lp125
p2001
g2
((lp2002
g4
atp2003
Rp2004
sVsave_filename)
p2005
g2
((lp2006
g29
atp2007
Rp2008
sVatp238
p2009
g2
((lp2010
g4
atp2011
Rp2012
sVof
p2013
g2
((lp2014
g29
atp2015
Rp2016
sVatp230
p2017
g2
((lp2018
g4
atp2019
Rp2020
sVatp234
p2021
g2
((lp2022
g4
atp2023
Rp2024
sVsVwords
p2025
g2
((lp2026
g4
atp2027
Rp2028
sVos
p2029
g2
((lp2030
g29
atp2031
Rp2032
sVp228
p2033
g2
((lp2034
g4
atp2035
Rp2036
sVfile?
p2037
g2
((lp2038
g29
atp2039
Rp2040
sVsV#
p2041
g2
((lp2042
g4
atp2043
Rp2044
sVsVs.decode('utf-8').split()
p2045
g2
((lp2046
g4
atp2047
Rp2048
sVsV=
p2049
g2
((lp2050
g4
atp2051
Rp2052
sVRp55
p2053
g2
((lp2054
g4
atp2055
Rp2056
sVatp346
p2057
g2
((lp2058
g4
atp2059
Rp2060
sVsave_filename,
p2061
g2
((lp2062
g29
atp2063
Rp2064
sVatp342
p2065
g2
((lp2066
g4
atp2067
Rp2068
sVhtml.decode('utf-8'))
p2069
g2
((lp2070
g174
atp2071
Rp2072
sVatp350
p2073
g2
((lp2074
g4
atp2075
Rp2076
sVtop10
p2077
g2
((lp2078
g174
atp2079
Rp2080
sVRp59
p2081
g2
((lp2082
g4
atp2083
Rp2084
sVsV'.'
p2085
g2
((lp2086
g4
atp2087
Rp2088
sVp332
p2089
g2
((lp2090
g4
atp2091
Rp2092
sVp336
p2093
g2
((lp2094
g4
atp2095
Rp2096
sVp112
p2097
g2
((lp2098
g4
atp2099
Rp2100
sV((lp89
p2101
g2
((lp2102
g4
atp2103
Rp2104
sVp116
p2105
g2
((lp2106
g4
atp2107
Rp2108
sVsVpickle
p2109
g2
((lp2110
g4
atp2111
Rp2112
sV((lp81
p2113
g2
((lp2114
g4
atp2115
Rp2116
sV((lp85
p2117
g2
((lp2118
g4
atp2119
Rp2120
sVRp107
p2121
g2
((lp2122
g4
atp2123
Rp2124
sV((lp233
p2125
g2
((lp2126
g4
atp2127
Rp2128
sVwith
p2129
g2
((lp2130
g29
ag174
atp2131
Rp2132
sVsVs
p2133
g2
((lp2134
g4
atp2135
Rp2136
sVcount
p2137
g2
((lp2138
g174
atp2139
Rp2140
sVsVurllib.request
p2141
g2
((lp2142
g4
atp2143
Rp2144
sV((lp73
p2145
g2
((lp2146
g4
atp2147
Rp2148
sVsVdoc.read()
p2149
g2
((lp2150
g4
atp2151
Rp2152
sVRp103
p2153
g2
((lp2154
g4
atp2155
Rp2156
sVurl
p2157
g2
((lp2158
g174
atp2159
Rp2160
sVp204
p2161
g2
((lp2162
g4
atp2163
Rp2164
sVp200
p2165
g2
((lp2166
g4
atp2167
Rp2168
sVsplit_result
p2169
g2
((lp2170
g174
atp2171
Rp2172
sVRp131
p2173
g2
((lp2174
g4
atp2175
Rp2176
sVRp135
p2177
g2
((lp2178
g4
atp2179
Rp2180
sVatp162
p2181
g2
((lp2182
g4
atp2183
Rp2184
sVRp311
p2185
g2
((lp2186
g4
atp2187
Rp2188
sVRp259
p2189
g2
((lp2190
g4
atp2191
Rp2192
sVatp166
p2193
g2
((lp2194
g4
atp2195
Rp2196
sVwords:
p2197
g2
((lp2198
g29
atp2199
Rp2200
sVRp315
p2201
g2
((lp2202
g4
atp2203
Rp2204
sVsVurl
p2205
g2
((lp2206
g4
atp2207
Rp2208
sVatp282
p2209
g2
((lp2210
g4
atp2211
Rp2212
sVRp319
p2213
g2
((lp2214
g4
atp2215
Rp2216
sVRp251
p2217
g2
((lp2218
g4
atp2219
Rp2220
sVsave_words_in_files(path,
p2221
g2
((lp2222
g29
atp2223
Rp2224
sVatp286
p2225
g2
((lp2226
g4
atp2227
Rp2228
sV((lp377
p2229
g2
((lp2230
g4
atp2231
Rp2232
sVRp255
p2233
g2
((lp2234
g4
atp2235
Rp2236
sV''
p2237
g2
((lp2238
g174
atp2239
Rp2240
sVprint(html.decode('utf-8'))
p2241
g2
((lp2242
g174
atp2243
Rp2244
sVas
p2245
g2
((lp2246
g29
ag174
atp2247
Rp2248
sVfile
p2249
g2
((lp2250
g29
atp2251
Rp2252
sVword_dict[word].update([filename])
p2253
g2
((lp2254
g29
atp2255
Rp2256
sVos.path.isfile(os.path.join(path,
p2257
g2
((lp2258
g29
atp2259
Rp2260
sV((lp349
p2261
g2
((lp2262
g4
atp2263
Rp2264
sVsVsave_words_in_files(path,
p2265
g2
((lp2266
g4
atp2267
Rp2268
sVS'file-indexer.py'
p2269
g2
((lp2270
g4
atp2271
Rp2272
sVag4
p2273
g2
((lp2274
g4
atp2275
Rp2276
sVp76
p2277
g2
((lp2278
g4
atp2279
Rp2280
sVsVset([filename])
p2281
g2
((lp2282
g4
atp2283
Rp2284
sVp72
p2285
g2
((lp2286
g4
atp2287
Rp2288
sVsVprint(html)
p2289
g2
((lp2290
g4
atp2291
Rp2292
sV{}
p2293
g2
((lp2294
g29
atp2295
Rp2296
sVfilename):
p2297
g2
((lp2298
g29
atp2299
Rp2300
sVsVword_dict[word].update([filename])
p2301
g2
((lp2302
g4
atp2303
Rp2304
sVsVfrom
p2305
g2
((lp2306
g4
atp2307
Rp2308
sVsVpath
p2309
g2
((lp2310
g4
atp2311
Rp2312
sVfilename),
p2313
g2
((lp2314
g29
atp2315
Rp2316
sV((lp273
p2317
g2
((lp2318
g4
atp2319
Rp2320
sV((lp277
p2321
g2
((lp2322
g4
atp2323
Rp2324
sVdirectory
p2325
g2
((lp2326
g29
atp2327
Rp2328
sVsVfilename.startswith('.'):
p2329
g2
((lp2330
g4
atp2331
Rp2332
sVsV{}
p2333
g2
((lp2334
g4
atp2335
Rp2336
sVfile(pickle)
p2337
g2
((lp2338
g29
atp2339
Rp2340
s.